(lp0
(S'person'
p1
F0.9990313649177551
(F604.170654296875
F288.020751953125
F45.76512908935547
F93.98255157470703
tp2
tp3
a(S'person'
p4
F0.9954469203948975
(F836.5086669921875
F218.68560791015625
F26.97101402282715
F77.16358947753906
tp5
tp6
a(S'person'
p7
F0.9909359216690063
(F692.314697265625
F432.68096923828125
F57.425621032714844
F96.02696990966797
tp8
tp9
a(S'person'
p10
F0.9902480840682983
(F720.6278076171875
F283.4827880859375
F28.241661071777344
F90.53235626220703
tp11
tp12
a(S'person'
p13
F0.970098078250885
(F1066.2332763671875
F182.9161376953125
F27.976701736450195
F61.014156341552734
tp14
tp15
a(S'person'
p16
F0.9689697623252869
(F366.6820983886719
F556.9890747070312
F67.81233215332031
F124.89667510986328
tp17
tp18
a(S'person'
p19
F0.9667543172836304
(F1001.3099365234375
F385.40008544921875
F57.68952941894531
F119.2049331665039
tp20
tp21
a(S'person'
p22
F0.9616835713386536
(F546.773193359375
F177.25108337402344
F32.753440856933594
F73.06362915039062
tp23
tp24
a(S'person'
p25
F0.9571900367736816
(F119.09782409667969
F583.5399169921875
F47.127689361572266
F133.41868591308594
tp26
tp27
a(S'person'
p28
F0.855812668800354
(F410.61334228515625
F666.252197265625
F55.091896057128906
F106.22949981689453
tp29
tp30
a(S'person'
p31
F0.8433833122253418
(F385.41015625
F501.65582275390625
F49.2046012878418
F107.03144073486328
tp32
tp33
a.